target datalayout = "e-m:e-p270:32:32-p271:32:32-p272:64:64-i64:64-i128:128-f80:128-n8:16:32:64-S128"
target triple = "x86_64-pc-linux-gnu"

%struct.Acec_ParCec_t_ = type { i32, i32, i32, i32, i32, i32, i32, i32, i32, i32 }
%struct.Vec_Int_t_ = type { i32, i32, ptr }
%struct.Gia_Man_t_ = type { ptr, ptr, i32, i32, i32, i32, ptr, ptr, i32, i32, i32, ptr, ptr, %struct.Vec_Int_t_, %struct.Vec_Int_t_, i32, i32, i32, %struct.Vec_Int_t_, ptr, ptr, ptr, i32, i32, i32, i32, ptr, ptr, ptr, ptr, ptr, i32, i32, ptr, i32, ptr, ptr, ptr, ptr, ptr, ptr, ptr, ptr, ptr, ptr, ptr, ptr, ptr, ptr, ptr, ptr, ptr, ptr, %struct.Vec_Int_t_, %struct.Vec_Int_t_, ptr, ptr, ptr, ptr, ptr, ptr, ptr, ptr, ptr, ptr, ptr, ptr, ptr, ptr, ptr, ptr, ptr, ptr, ptr, ptr, ptr, i32, float, float, ptr, ptr, i32, ptr, ptr, ptr, ptr, ptr, ptr, ptr, ptr, ptr, ptr, ptr, ptr, ptr, ptr, ptr, i64, i64, ptr, ptr, i32, i32, i32, i32, i32, i32, i32, i32, i32, i32, i32, i32, ptr, ptr, ptr, ptr, ptr, ptr, ptr, ptr, i32, i32, i32, ptr, i32, i32, ptr, ptr, ptr, ptr, ptr, ptr, i32, i32, ptr, %struct.Vec_Int_t_, %struct.Vec_Int_t_, %struct.Vec_Int_t_, ptr, ptr, ptr }
%struct.Gia_Obj_t_ = type <{ i64, i32 }>
%struct.Cec_ParCec_t_ = type { i32, i32, i32, i32, i32, i32, i32, i32, i32 }
%struct.timespec = type { i64, i64 }

@.str.4 = private unnamed_addr constant [5 x i8] c"Time\00", align 1
@.str.23 = private unnamed_addr constant [71 x i8] c"Cannot find arithmetic boxes in both LHS and RHS. Trying regular CEC.\0A\00", align 1
@.str.24 = private unnamed_addr constant [67 x i8] c"Cannot match arithmetic boxes in LHS and RHS. Trying regular CEC.\0A\00", align 1
@.str.25 = private unnamed_addr constant [52 x i8] c"Matching of adder trees in LHS and RHS succeeded.  \00", align 1
@.str.26 = private unnamed_addr constant [51 x i8] c"The verification miter is written into file \22%s\22.\0A\00", align 1
@.str.27 = private unnamed_addr constant [15 x i8] c"acec_miter.aig\00", align 1
@.str.28 = private unnamed_addr constant [31 x i8] c"Miter computation has failed.\0A\00", align 1
@.str.31 = private unnamed_addr constant [5 x i8] c"%s =\00", align 1
@.str.32 = private unnamed_addr constant [11 x i8] c"%9.2f sec\0A\00", align 1

; Function Attrs: nounwind uwtable
define internal ptr @Gia_ManObj(ptr noundef %0, i32 noundef %1) #0 {
  %3 = alloca ptr, align 8
  %4 = alloca i32, align 4
  store ptr %0, ptr %3, align 8
  store i32 %1, ptr %4, align 4
  %5 = load ptr, ptr %3, align 8
  %6 = getelementptr inbounds %struct.Gia_Man_t_, ptr %5, i32 0, i32 6
  %7 = load ptr, ptr %6, align 8
  %8 = load i32, ptr %4, align 4
  %9 = sext i32 %8 to i64
  %10 = getelementptr inbounds %struct.Gia_Obj_t_, ptr %7, i64 %9
  ret ptr %10
}

; Function Attrs: nounwind uwtable
define internal i32 @Vec_IntEntry(ptr noundef %0, i32 noundef %1) #0 {
  %3 = alloca ptr, align 8
  %4 = alloca i32, align 4
  store ptr %0, ptr %3, align 8
  store i32 %1, ptr %4, align 4
  %5 = load ptr, ptr %3, align 8
  %6 = getelementptr inbounds %struct.Vec_Int_t_, ptr %5, i32 0, i32 2
  %7 = load ptr, ptr %6, align 8
  %8 = load i32, ptr %4, align 4
  %9 = sext i32 %8 to i64
  %10 = getelementptr inbounds i32, ptr %7, i64 %9
  %11 = load i32, ptr %10, align 4
  ret i32 %11
}

; Function Attrs: nounwind uwtable
define internal i32 @Abc_LitIsCompl(i32 noundef %0) #0 {
  %2 = alloca i32, align 4
  store i32 %0, ptr %2, align 4
  %3 = load i32, ptr %2, align 4
  %4 = and i32 %3, 1
  ret i32 %4
}

; Function Attrs: nounwind uwtable
define internal i32 @Abc_Lit2Var(i32 noundef %0) #0 {
  %2 = alloca i32, align 4
  store i32 %0, ptr %2, align 4
  %3 = load i32, ptr %2, align 4
  %4 = ashr i32 %3, 1
  ret i32 %4
}

; Function Attrs: nounwind uwtable
define internal i32 @Gia_ObjId(ptr noundef %0, ptr noundef %1) #0 {
  %3 = alloca ptr, align 8
  %4 = alloca ptr, align 8
  store ptr %0, ptr %3, align 8
  store ptr %1, ptr %4, align 8
  %5 = load ptr, ptr %4, align 8
  %6 = load ptr, ptr %3, align 8
  %7 = getelementptr inbounds %struct.Gia_Man_t_, ptr %6, i32 0, i32 6
  %8 = load ptr, ptr %7, align 8
  %9 = ptrtoint ptr %5 to i64
  %10 = ptrtoint ptr %8 to i64
  %11 = sub i64 %9, %10
  %12 = sdiv exact i64 %11, 12
  %13 = trunc i64 %12 to i32
  ret i32 %13
}

; Function Attrs: nounwind uwtable
define internal ptr @Gia_ManCo(ptr noundef %0, i32 noundef %1) #0 {
  %3 = alloca ptr, align 8
  %4 = alloca i32, align 4
  store ptr %0, ptr %3, align 8
  store i32 %1, ptr %4, align 4
  %5 = load ptr, ptr %3, align 8
  %6 = load ptr, ptr %3, align 8
  %7 = getelementptr inbounds %struct.Gia_Man_t_, ptr %6, i32 0, i32 12
  %8 = load ptr, ptr %7, align 8
  %9 = load i32, ptr %4, align 4
  %10 = call i32 @Vec_IntEntry(ptr noundef %8, i32 noundef %9)
  %11 = call ptr @Gia_ManObj(ptr noundef %5, i32 noundef %10)
  ret ptr %11
}

; Function Attrs: nounwind uwtable
define internal i32 @Vec_IntSize(ptr noundef %0) #0 {
  %2 = alloca ptr, align 8
  store ptr %0, ptr %2, align 8
  %3 = load ptr, ptr %2, align 8
  %4 = getelementptr inbounds %struct.Vec_Int_t_, ptr %3, i32 0, i32 1
  %5 = load i32, ptr %4, align 4
  ret i32 %5
}

; Function Attrs: nounwind uwtable
define internal void @Gia_ManPatchCoDriver(ptr noundef %0, i32 noundef %1, i32 noundef %2) #0 {
  %4 = alloca ptr, align 8
  %5 = alloca i32, align 4
  %6 = alloca i32, align 4
  %7 = alloca ptr, align 8
  store ptr %0, ptr %4, align 8
  store i32 %1, ptr %5, align 4
  store i32 %2, ptr %6, align 4
  %8 = load ptr, ptr %4, align 8
  %9 = load i32, ptr %5, align 4
  %10 = call ptr @Gia_ManCo(ptr noundef %8, i32 noundef %9)
  store ptr %10, ptr %7, align 8
  %11 = load ptr, ptr %4, align 8
  %12 = load ptr, ptr %7, align 8
  %13 = call i32 @Gia_ObjId(ptr noundef %11, ptr noundef %12)
  %14 = load i32, ptr %6, align 4
  %15 = call i32 @Abc_Lit2Var(i32 noundef %14)
  %16 = sub nsw i32 %13, %15
  %17 = load ptr, ptr %7, align 8
  %18 = zext i32 %16 to i64
  %19 = load i64, ptr %17, align 4
  %20 = and i64 %18, 536870911
  %21 = and i64 %19, -536870912
  %22 = or i64 %21, %20
  store i64 %22, ptr %17, align 4
  %23 = load i32, ptr %6, align 4
  %24 = call i32 @Abc_LitIsCompl(i32 noundef %23)
  %25 = load ptr, ptr %7, align 8
  %26 = zext i32 %24 to i64
  %27 = load i64, ptr %25, align 4
  %28 = and i64 %26, 1
  %29 = shl i64 %28, 29
  %30 = and i64 %27, -536870913
  %31 = or i64 %30, %29
  store i64 %31, ptr %25, align 4
  ret void
}

; Function Attrs: nounwind uwtable
define internal i32 @Gia_ManCoNum(ptr noundef %0) #0 {
  %2 = alloca ptr, align 8
  store ptr %0, ptr %2, align 8
  %3 = load ptr, ptr %2, align 8
  %4 = getelementptr inbounds %struct.Gia_Man_t_, ptr %3, i32 0, i32 12
  %5 = load ptr, ptr %4, align 8
  %6 = call i32 @Vec_IntSize(ptr noundef %5)
  ret i32 %6
}

; Function Attrs: nounwind uwtable
define internal void @Abc_PrintTime(i32 noundef %0, ptr noundef %1, i64 noundef %2) #0 {
  %4 = alloca i32, align 4
  %5 = alloca ptr, align 8
  %6 = alloca i64, align 8
  store i32 %0, ptr %4, align 4
  store ptr %1, ptr %5, align 8
  store i64 %2, ptr %6, align 8
  %7 = load ptr, ptr %5, align 8
  call void (i32, ptr, ...) @Abc_Print(i32 noundef 1, ptr noundef @.str.31, ptr noundef %7)
  %8 = load i64, ptr %6, align 8
  %9 = sitofp i64 %8 to double
  %10 = fmul double 1.000000e+00, %9
  %11 = fdiv double %10, 1.000000e+06
  call void (i32, ptr, ...) @Abc_Print(i32 noundef 1, ptr noundef @.str.32, double noundef %11)
  ret void
}

; Function Attrs: nounwind uwtable
define internal i64 @Abc_Clock() #0 {
  %1 = alloca i64, align 8
  %2 = alloca %struct.timespec, align 8
  %3 = alloca i64, align 8
  %4 = call i32 @clock_gettime(i32 noundef 1, ptr noundef %2) #12
  %5 = icmp slt i32 %4, 0
  br i1 %5, label %6, label %7

6:                                                ; preds = %0
  store i64 -1, ptr %1, align 8
  br label %18

7:                                                ; preds = %0
  %8 = getelementptr inbounds %struct.timespec, ptr %2, i32 0, i32 0
  %9 = load i64, ptr %8, align 8
  %10 = mul nsw i64 %9, 1000000
  store i64 %10, ptr %3, align 8
  %11 = getelementptr inbounds %struct.timespec, ptr %2, i32 0, i32 1
  %12 = load i64, ptr %11, align 8
  %13 = mul nsw i64 %12, 1000000
  %14 = sdiv i64 %13, 1000000000
  %15 = load i64, ptr %3, align 8
  %16 = add nsw i64 %15, %14
  store i64 %16, ptr %3, align 8
  %17 = load i64, ptr %3, align 8
  store i64 %17, ptr %1, align 8
  br label %18

18:                                               ; preds = %7, %6
  %19 = load i64, ptr %1, align 8
  ret i64 %19
}

; Function Attrs: nounwind uwtable
define i32 @Acec_Solve(ptr noundef %0, ptr noundef %1, ptr noundef %2) #0 {
  %4 = alloca ptr, align 8
  %5 = alloca ptr, align 8
  %6 = alloca ptr, align 8
  %7 = alloca i32, align 4
  %8 = alloca i64, align 8
  %9 = alloca ptr, align 8
  %10 = alloca ptr, align 8
  %11 = alloca ptr, align 8
  %12 = alloca %struct.Cec_ParCec_t_, align 4
  %13 = alloca ptr, align 8
  %14 = alloca ptr, align 8
  %15 = alloca ptr, align 8
  %16 = alloca i32, align 4
  %17 = alloca ptr, align 8
  store ptr %0, ptr %4, align 8
  store ptr %1, ptr %5, align 8
  store ptr %2, ptr %6, align 8
  store i32 -1, ptr %7, align 4
  %18 = call i64 @Abc_Clock()
  store i64 %18, ptr %8, align 8
  %19 = load ptr, ptr %4, align 8
  store ptr %19, ptr %10, align 8
  %20 = load ptr, ptr %5, align 8
  store ptr %20, ptr %11, align 8
  store ptr %12, ptr %13, align 8
  %21 = load ptr, ptr %4, align 8
  %22 = load ptr, ptr %6, align 8
  %23 = getelementptr inbounds %struct.Acec_ParCec_t_, ptr %22, i32 0, i32 8
  %24 = load i32, ptr %23, align 4
  %25 = call ptr @Acec_ProduceBox(ptr noundef %21, i32 noundef %24)
  store ptr %25, ptr %14, align 8
  %26 = load ptr, ptr %5, align 8
  %27 = load ptr, ptr %6, align 8
  %28 = getelementptr inbounds %struct.Acec_ParCec_t_, ptr %27, i32 0, i32 8
  %29 = load i32, ptr %28, align 4
  %30 = call ptr @Acec_ProduceBox(ptr noundef %26, i32 noundef %29)
  store ptr %30, ptr %15, align 8
  %31 = load ptr, ptr %14, align 8
  %32 = icmp eq ptr %31, null
  br i1 %32, label %36, label %33

33:                                               ; preds = %3
  %34 = load ptr, ptr %15, align 8
  %35 = icmp eq ptr %34, null
  br i1 %35, label %36, label %38

36:                                               ; preds = %33, %3
  %37 = call i32 (ptr, ...) @printf(ptr noundef @.str.23)
  br label %71

38:                                               ; preds = %33
  %39 = load ptr, ptr %14, align 8
  %40 = load ptr, ptr %15, align 8
  %41 = call i32 @Acec_MatchBoxes(ptr noundef %39, ptr noundef %40)
  %42 = icmp ne i32 %41, 0
  br i1 %42, label %45, label %43

43:                                               ; preds = %38
  %44 = call i32 (ptr, ...) @printf(ptr noundef @.str.24)
  br label %70

45:                                               ; preds = %38
  %46 = load ptr, ptr %14, align 8
  %47 = call ptr @Acec_InsertBox(ptr noundef %46, i32 noundef 0)
  store ptr %47, ptr %10, align 8
  %48 = load ptr, ptr %15, align 8
  %49 = call ptr @Acec_InsertBox(ptr noundef %48, i32 noundef 0)
  store ptr %49, ptr %11, align 8
  %50 = call i32 (ptr, ...) @printf(ptr noundef @.str.25)
  %51 = call i64 @Abc_Clock()
  %52 = load i64, ptr %8, align 8
  %53 = sub nsw i64 %51, %52
  call void @Abc_PrintTime(i32 noundef 1, ptr noundef @.str.4, i64 noundef %53)
  %54 = load ptr, ptr %10, align 8
  %55 = load ptr, ptr %10, align 8
  %56 = call i32 @Gia_ManCoNum(ptr noundef %55)
  %57 = sub nsw i32 %56, 1
  call void @Gia_ManPatchCoDriver(ptr noundef %54, i32 noundef %57, i32 noundef 0)
  %58 = load ptr, ptr %11, align 8
  %59 = load ptr, ptr %11, align 8
  %60 = call i32 @Gia_ManCoNum(ptr noundef %59)
  %61 = sub nsw i32 %60, 1
  call void @Gia_ManPatchCoDriver(ptr noundef %58, i32 noundef %61, i32 noundef 0)
  %62 = load ptr, ptr %10, align 8
  %63 = load ptr, ptr %10, align 8
  %64 = call i32 @Gia_ManCoNum(ptr noundef %63)
  %65 = sub nsw i32 %64, 2
  call void @Gia_ManPatchCoDriver(ptr noundef %62, i32 noundef %65, i32 noundef 0)
  %66 = load ptr, ptr %11, align 8
  %67 = load ptr, ptr %11, align 8
  %68 = call i32 @Gia_ManCoNum(ptr noundef %67)
  %69 = sub nsw i32 %68, 2
  call void @Gia_ManPatchCoDriver(ptr noundef %66, i32 noundef %69, i32 noundef 0)
  br label %70

70:                                               ; preds = %45, %43
  br label %71

71:                                               ; preds = %70, %36
  %72 = load ptr, ptr %13, align 8
  call void @Cec_ManCecSetDefaultParams(ptr noundef %72)
  %73 = load ptr, ptr %6, align 8
  %74 = getelementptr inbounds %struct.Acec_ParCec_t_, ptr %73, i32 0, i32 0
  %75 = load i32, ptr %74, align 4
  %76 = load ptr, ptr %13, align 8
  %77 = getelementptr inbounds %struct.Cec_ParCec_t_, ptr %76, i32 0, i32 0
  store i32 %75, ptr %77, align 4
  %78 = load ptr, ptr %10, align 8
  %79 = load ptr, ptr %11, align 8
  %80 = load ptr, ptr %6, align 8
  %81 = getelementptr inbounds %struct.Acec_ParCec_t_, ptr %80, i32 0, i32 8
  %82 = load i32, ptr %81, align 4
  %83 = call ptr @Gia_ManMiter(ptr noundef %78, ptr noundef %79, i32 noundef 0, i32 noundef 1, i32 noundef 0, i32 noundef 0, i32 noundef %82)
  store ptr %83, ptr %9, align 8
  %84 = load ptr, ptr %9, align 8
  %85 = icmp ne ptr %84, null
  br i1 %85, label %86, label %107

86:                                               ; preds = %71
  store i32 0, ptr %16, align 4
  %87 = load i32, ptr %16, align 4
  %88 = icmp ne i32 %87, 0
  br i1 %88, label %89, label %91

89:                                               ; preds = %86
  call void (i32, ptr, ...) @Abc_Print(i32 noundef 0, ptr noundef @.str.26, ptr noundef @.str.27)
  %90 = load ptr, ptr %9, align 8
  call void @Gia_AigerWrite(ptr noundef %90, ptr noundef @.str.27, i32 noundef 0, i32 noundef 0, i32 noundef 0)
  br label %91

91:                                               ; preds = %89, %86
  %92 = load ptr, ptr %9, align 8
  %93 = load ptr, ptr %13, align 8
  %94 = call i32 @Cec_ManVerify(ptr noundef %92, ptr noundef %93)
  store i32 %94, ptr %7, align 4
  %95 = load ptr, ptr %4, align 8
  %96 = getelementptr inbounds %struct.Gia_Man_t_, ptr %95, i32 0, i32 50
  %97 = load ptr, ptr %96, align 8
  store ptr %97, ptr %17, align 8
  %98 = load ptr, ptr %9, align 8
  %99 = getelementptr inbounds %struct.Gia_Man_t_, ptr %98, i32 0, i32 50
  %100 = load ptr, ptr %99, align 8
  %101 = load ptr, ptr %4, align 8
  %102 = getelementptr inbounds %struct.Gia_Man_t_, ptr %101, i32 0, i32 50
  store ptr %100, ptr %102, align 8
  %103 = load ptr, ptr %17, align 8
  %104 = load ptr, ptr %9, align 8
  %105 = getelementptr inbounds %struct.Gia_Man_t_, ptr %104, i32 0, i32 50
  store ptr %103, ptr %105, align 8
  %106 = load ptr, ptr %9, align 8
  call void @Gia_ManStop(ptr noundef %106)
  br label %109

107:                                              ; preds = %71
  %108 = call i32 (ptr, ...) @printf(ptr noundef @.str.28)
  br label %109

109:                                              ; preds = %107, %91
  %110 = load ptr, ptr %10, align 8
  %111 = load ptr, ptr %4, align 8
  %112 = icmp ne ptr %110, %111
  br i1 %112, label %113, label %115

113:                                              ; preds = %109
  %114 = load ptr, ptr %10, align 8
  call void @Gia_ManStop(ptr noundef %114)
  br label %115

115:                                              ; preds = %113, %109
  %116 = load ptr, ptr %11, align 8
  %117 = load ptr, ptr %5, align 8
  %118 = icmp ne ptr %116, %117
  br i1 %118, label %119, label %121

119:                                              ; preds = %115
  %120 = load ptr, ptr %11, align 8
  call void @Gia_ManStop(ptr noundef %120)
  br label %121

121:                                              ; preds = %119, %115
  call void @Acec_BoxFreeP(ptr noundef %14)
  call void @Acec_BoxFreeP(ptr noundef %15)
  %122 = load i32, ptr %7, align 4
  ret i32 %122
}