; Function Attrs: nounwind uwtable
define i32 @Acec_Solve(ptr noundef %0, ptr noundef %1, ptr noundef readonly captures(none) %2) local_unnamed_addr #2 {
  %4 = alloca %struct.timespec, align 8
  %5 = alloca %struct.timespec, align 8
  %6 = alloca %struct.Cec_ParCec_t_, align 4
  %7 = alloca ptr, align 8
  %8 = alloca ptr, align 8
  call void @llvm.lifetime.start.p0(i64 16, ptr nonnull %5)
  %9 = call i32 @clock_gettime(i32 noundef 1, ptr noundef nonnull %5) #20
  %10 = icmp slt i32 %9, 0
  br i1 %10, label %Abc_Clock.exit, label %11

11:                                               ; preds = %3
  %12 = load i64, ptr %5, align 8
  %.neg62 = mul i64 %12, -1000000
  %13 = getelementptr inbounds nuw i8, ptr %5, i64 8
  %14 = load i64, ptr %13, align 8
  %.neg = sdiv i64 %14, -1000
  %.neg63 = add i64 %.neg, %.neg62
  br label %Abc_Clock.exit

Abc_Clock.exit:                                   ; preds = %3, %11
  %.0.i.neg = phi i64 [ %.neg63, %11 ], [ 1, %3 ]
  call void @llvm.lifetime.end.p0(i64 16, ptr nonnull %5)
  %15 = getelementptr inbounds nuw i8, ptr %2, i64 32
  %16 = load i32, ptr %15, align 4
  %17 = call ptr @Acec_ProduceBox(ptr noundef %0, i32 noundef %16) #20
  store ptr %17, ptr %7, align 8
  %18 = load i32, ptr %15, align 4
  %19 = call ptr @Acec_ProduceBox(ptr noundef %1, i32 noundef %18) #20
  store ptr %19, ptr %8, align 8
  %20 = icmp eq ptr %17, null
  %21 = icmp eq ptr %19, null
  %or.cond = select i1 %20, i1 true, i1 %21
  br i1 %or.cond, label %22, label %23

22:                                               ; preds = %Abc_Clock.exit
  %puts44 = call i32 @puts(ptr nonnull dereferenceable(1) @str.5)
  br label %98

23:                                               ; preds = %Abc_Clock.exit
  %24 = call i32 @Acec_MatchBoxes(ptr noundef nonnull %17, ptr noundef nonnull %19)
  %.not = icmp eq i32 %24, 0
  br i1 %.not, label %25, label %26

25:                                               ; preds = %23
  %puts = call i32 @puts(ptr nonnull dereferenceable(1) @str.4)
  br label %98

26:                                               ; preds = %23
  %27 = call ptr @Acec_InsertBox(ptr noundef nonnull %17, i32 noundef 0) #20
  %28 = call ptr @Acec_InsertBox(ptr noundef nonnull %19, i32 noundef 0) #20
  %29 = call i32 (ptr, ...) @printf(ptr noundef nonnull dereferenceable(1) @.str.25)
  call void @llvm.lifetime.start.p0(i64 16, ptr nonnull %4)
  %30 = call i32 @clock_gettime(i32 noundef 1, ptr noundef nonnull %4) #20
  %31 = icmp slt i32 %30, 0
  br i1 %31, label %Abc_Clock.exit61, label %32

32:                                               ; preds = %26
  %33 = load i64, ptr %4, align 8
  %34 = mul nsw i64 %33, 1000000
  %35 = getelementptr inbounds nuw i8, ptr %4, i64 8
  %36 = load i64, ptr %35, align 8
  %37 = sdiv i64 %36, 1000
  %38 = add nsw i64 %37, %34
  br label %Abc_Clock.exit61

Abc_Clock.exit61:                                 ; preds = %26, %32
  %.0.i60 = phi i64 [ %38, %32 ], [ -1, %26 ]
  call void @llvm.lifetime.end.p0(i64 16, ptr nonnull %4)
  %39 = add i64 %.0.i60, %.0.i.neg
  call void (i32, ptr, ...) @Abc_Print(i32 poison, ptr noundef nonnull @.str.31, ptr noundef nonnull @.str.4)
  %40 = sitofp i64 %39 to double
  %41 = fdiv double %40, 1.000000e+06
  call void (i32, ptr, ...) @Abc_Print(i32 poison, ptr noundef nonnull @.str.32, double noundef %41)
  %42 = getelementptr i8, ptr %27, i64 72
  %.val = load ptr, ptr %42, align 8
  %43 = getelementptr i8, ptr %.val, i64 4
  %.val.val = load i32, ptr %43, align 4
  %44 = getelementptr i8, ptr %27, i64 32
  %.val52 = load ptr, ptr %44, align 8
  %45 = getelementptr i8, ptr %.val, i64 8
  %.val53.val = load ptr, ptr %45, align 8
  %46 = sext i32 %.val.val to i64
  %47 = getelementptr i32, ptr %.val53.val, i64 %46
  %48 = getelementptr i8, ptr %47, i64 -4
  %49 = load i32, ptr %48, align 4
  %50 = sext i32 %49 to i64
  %51 = getelementptr inbounds %struct.Gia_Obj_t_, ptr %.val52, i64 %50
  %52 = load i64, ptr %51, align 4
  %53 = and i32 %49, 536870911
  %54 = zext nneg i32 %53 to i64
  %55 = and i64 %52, -1073741824
  %56 = or disjoint i64 %55, %54
  store i64 %56, ptr %51, align 4
  %57 = getelementptr i8, ptr %28, i64 72
  %.val49 = load ptr, ptr %57, align 8
  %58 = getelementptr i8, ptr %.val49, i64 4
  %.val49.val = load i32, ptr %58, align 4
  %59 = getelementptr i8, ptr %28, i64 32
  %.val54 = load ptr, ptr %59, align 8
  %60 = getelementptr i8, ptr %.val49, i64 8
  %.val55.val = load ptr, ptr %60, align 8
  %61 = sext i32 %.val49.val to i64
  %62 = getelementptr i32, ptr %.val55.val, i64 %61
  %63 = getelementptr i8, ptr %62, i64 -4
  %64 = load i32, ptr %63, align 4
  %65 = sext i32 %64 to i64
  %66 = getelementptr inbounds %struct.Gia_Obj_t_, ptr %.val54, i64 %65
  %67 = load i64, ptr %66, align 4
  %68 = and i32 %64, 536870911
  %69 = zext nneg i32 %68 to i64
  %70 = and i64 %67, -1073741824
  %71 = or disjoint i64 %70, %69
  store i64 %71, ptr %66, align 4
  %.val50 = load ptr, ptr %42, align 8
  %72 = getelementptr i8, ptr %.val50, i64 4
  %.val50.val = load i32, ptr %72, align 4
  %.val56 = load ptr, ptr %44, align 8
  %73 = getelementptr i8, ptr %.val50, i64 8
  %.val57.val = load ptr, ptr %73, align 8
  %74 = sext i32 %.val50.val to i64
  %75 = getelementptr i32, ptr %.val57.val, i64 %74
  %76 = getelementptr i8, ptr %75, i64 -8
  %77 = load i32, ptr %76, align 4
  %78 = sext i32 %77 to i64
  %79 = getelementptr inbounds %struct.Gia_Obj_t_, ptr %.val56, i64 %78
  %80 = load i64, ptr %79, align 4
  %81 = and i32 %77, 536870911
  %82 = zext nneg i32 %81 to i64
  %83 = and i64 %80, -1073741824
  %84 = or disjoint i64 %83, %82
  store i64 %84, ptr %79, align 4
  %.val51 = load ptr, ptr %57, align 8
  %85 = getelementptr i8, ptr %.val51, i64 4
  %.val51.val = load i32, ptr %85, align 4
  %.val58 = load ptr, ptr %59, align 8
  %86 = getelementptr i8, ptr %.val51, i64 8
  %.val59.val = load ptr, ptr %86, align 8
  %87 = sext i32 %.val51.val to i64
  %88 = getelementptr i32, ptr %.val59.val, i64 %87
  %89 = getelementptr i8, ptr %88, i64 -8
  %90 = load i32, ptr %89, align 4
  %91 = sext i32 %90 to i64
  %92 = getelementptr inbounds %struct.Gia_Obj_t_, ptr %.val58, i64 %91
  %93 = load i64, ptr %92, align 4
  %94 = and i32 %90, 536870911
  %95 = zext nneg i32 %94 to i64
  %96 = and i64 %93, -1073741824
  %97 = or disjoint i64 %96, %95
  store i64 %97, ptr %92, align 4
  br label %98

98:                                               ; preds = %25, %Abc_Clock.exit61, %22
  %.040 = phi ptr [ %1, %22 ], [ %28, %Abc_Clock.exit61 ], [ %1, %25 ]
  %.039 = phi ptr [ %0, %22 ], [ %27, %Abc_Clock.exit61 ], [ %0, %25 ]
  call void @Cec_ManCecSetDefaultParams(ptr noundef nonnull %6) #20
  %99 = load i32, ptr %2, align 4
  store i32 %99, ptr %6, align 4
  %100 = load i32, ptr %15, align 4
  %101 = call ptr @Gia_ManMiter(ptr noundef %.039, ptr noundef %.040, i32 noundef 0, i32 noundef 1, i32 noundef 0, i32 noundef 0, i32 noundef %100) #20
  %.not45 = icmp eq ptr %101, null
  br i1 %.not45, label %108, label %102

102:                                              ; preds = %98
  %103 = call i32 @Cec_ManVerify(ptr noundef nonnull %101, ptr noundef nonnull %6) #20
  %104 = getelementptr inbounds nuw i8, ptr %0, i64 368
  %105 = load ptr, ptr %104, align 8
  %106 = getelementptr inbounds nuw i8, ptr %101, i64 368
  %107 = load ptr, ptr %106, align 8
  store ptr %107, ptr %104, align 8
  store ptr %105, ptr %106, align 8
  call void @Gia_ManStop(ptr noundef nonnull %101) #20
  br label %109

108:                                              ; preds = %98
  %puts46 = call i32 @puts(ptr nonnull dereferenceable(1) @str.6)
  br label %109

109:                                              ; preds = %108, %102
  %.0 = phi i32 [ %103, %102 ], [ -1, %108 ]
  %.not47 = icmp eq ptr %.039, %0
  br i1 %.not47, label %111, label %110

110:                                              ; preds = %109
  call void @Gia_ManStop(ptr noundef %.039) #20
  br label %111

111:                                              ; preds = %110, %109
  %.not48 = icmp eq ptr %.040, %1
  br i1 %.not48, label %113, label %112

112:                                              ; preds = %111
  call void @Gia_ManStop(ptr noundef %.040) #20
  br label %113

113:                                              ; preds = %112, %111
  call void @Acec_BoxFreeP(ptr noundef nonnull %7) #20
  call void @Acec_BoxFreeP(ptr noundef nonnull %8) #20
  ret i32 %.0
}